target datalayout = "e-m:e-p270:32:32-p271:32:32-p272:64:64-i64:64-i128:128-f80:128-n8:16:32:64-S128"
target triple = "x86_64-unknown-linux-gnu"

%"struct.std::atomic" = type { %"struct.std::__atomic_base" }
%"struct.std::__atomic_base" = type { i32 }
%"class.icu_75::UObject" = type { ptr }
%"class.icu_75::Locale" = type <{ %"class.icu_75::UObject", [12 x i8], [6 x i8], [4 x i8], [2 x i8], i32, [4 x i8], ptr, [157 x i8], [3 x i8], ptr, i8, [7 x i8] }>
%"struct.icu_75::CollationCacheEntry" = type { %"class.icu_75::SharedObject", %"class.icu_75::Locale", ptr }
%"class.icu_75::SharedObject" = type { %"class.icu_75::UObject", i32, %"struct.std::atomic", ptr }

@_ZTVN6icu_7519CollationCacheEntryE = external unnamed_addr constant { [5 x ptr] }, align 8
@_ZTVN6icu_7512SharedObjectE = external unnamed_addr constant { [5 x ptr] }, align 8
@_ZTVN6icu_757UObjectE = external unnamed_addr constant { [5 x ptr] }, align 8

; Function Attrs: mustprogress nounwind uwtable
define linkonce_odr void @_ZNSt13__atomic_baseIiEC2Ei(ptr noundef nonnull align 4 dereferenceable(4) %this, i32 noundef %__i) unnamed_addr #0 comdat align 2 {
entry:
  %this.addr = alloca ptr, align 8
  %__i.addr = alloca i32, align 4
  store ptr %this, ptr %this.addr, align 8
  store i32 %__i, ptr %__i.addr, align 4
  %this1 = load ptr, ptr %this.addr, align 8
  %_M_i = getelementptr inbounds %"struct.std::__atomic_base", ptr %this1, i32 0, i32 0
  %0 = load i32, ptr %__i.addr, align 4
  store i32 %0, ptr %_M_i, align 4
  ret void
}

; Function Attrs: mustprogress nounwind uwtable
define linkonce_odr void @_ZNSt6atomicIiEC2Ei(ptr noundef nonnull align 4 dereferenceable(4) %this, i32 noundef %__i) unnamed_addr #0 comdat align 2 {
entry:
  %this.addr = alloca ptr, align 8
  %__i.addr = alloca i32, align 4
  store ptr %this, ptr %this.addr, align 8
  store i32 %__i, ptr %__i.addr, align 4
  %this1 = load ptr, ptr %this.addr, align 8
  %0 = load i32, ptr %__i.addr, align 4
  call void @_ZNSt13__atomic_baseIiEC2Ei(ptr noundef nonnull align 4 dereferenceable(4) %this1, i32 noundef %0) #9
  ret void
}

; Function Attrs: mustprogress nounwind uwtable
define linkonce_odr void @_ZN6icu_757UObjectC2Ev(ptr noundef nonnull align 8 dereferenceable(8) %this) unnamed_addr #0 comdat align 2 {
entry:
  %this.addr = alloca ptr, align 8
  store ptr %this, ptr %this.addr, align 8
  %this1 = load ptr, ptr %this.addr, align 8
  store ptr getelementptr inbounds ({ [5 x ptr] }, ptr @_ZTVN6icu_757UObjectE, i32 0, i32 0, i32 2), ptr %this1, align 8
  ret void
}

; Function Attrs: mustprogress nounwind uwtable
define linkonce_odr void @_ZN6icu_7512SharedObjectC2Ev(ptr noundef nonnull align 8 dereferenceable(24) %this) unnamed_addr #0 comdat align 2 {
entry:
  %this.addr = alloca ptr, align 8
  store ptr %this, ptr %this.addr, align 8
  %this1 = load ptr, ptr %this.addr, align 8
  call void @_ZN6icu_757UObjectC2Ev(ptr noundef nonnull align 8 dereferenceable(8) %this1) #9
  store ptr getelementptr inbounds ({ [5 x ptr] }, ptr @_ZTVN6icu_7512SharedObjectE, i32 0, i32 0, i32 2), ptr %this1, align 8
  %softRefCount = getelementptr inbounds %"class.icu_75::SharedObject", ptr %this1, i32 0, i32 1
  store i32 0, ptr %softRefCount, align 8
  %hardRefCount = getelementptr inbounds %"class.icu_75::SharedObject", ptr %this1, i32 0, i32 2
  call void @_ZNSt6atomicIiEC2Ei(ptr noundef nonnull align 4 dereferenceable(4) %hardRefCount, i32 noundef 0) #9
  %cachePtr = getelementptr inbounds %"class.icu_75::SharedObject", ptr %this1, i32 0, i32 3
  store ptr null, ptr %cachePtr, align 8
  ret void
}

; Function Attrs: mustprogress uwtable
define linkonce_odr void @_ZN6icu_7519CollationCacheEntryC2ERKNS_6LocaleEPKNS_18CollationTailoringE(ptr noundef nonnull align 8 dereferenceable(256) %this, ptr noundef nonnull align 8 dereferenceable(217) %loc, ptr noundef %t) unnamed_addr #1 comdat align 2 personality ptr @__gxx_personality_v0 {
entry:
  %this.addr = alloca ptr, align 8
  %loc.addr = alloca ptr, align 8
  %t.addr = alloca ptr, align 8
  %exn.slot = alloca ptr, align 8
  %ehselector.slot = alloca i32, align 4
  store ptr %this, ptr %this.addr, align 8
  store ptr %loc, ptr %loc.addr, align 8
  store ptr %t, ptr %t.addr, align 8
  %this1 = load ptr, ptr %this.addr, align 8
  call void @_ZN6icu_7512SharedObjectC2Ev(ptr noundef nonnull align 8 dereferenceable(24) %this1)
  store ptr getelementptr inbounds ({ [5 x ptr] }, ptr @_ZTVN6icu_7519CollationCacheEntryE, i32 0, i32 0, i32 2), ptr %this1, align 8
  %validLocale = getelementptr inbounds %"struct.icu_75::CollationCacheEntry", ptr %this1, i32 0, i32 1
  %0 = load ptr, ptr %loc.addr, align 8
  invoke void @_ZN6icu_756LocaleC1ERKS0_(ptr noundef nonnull align 8 dereferenceable(217) %validLocale, ptr noundef nonnull align 8 dereferenceable(217) %0)
          to label %invoke.cont unwind label %lpad

invoke.cont:                                      ; preds = %entry
  %tailoring = getelementptr inbounds %"struct.icu_75::CollationCacheEntry", ptr %this1, i32 0, i32 2
  %1 = load ptr, ptr %t.addr, align 8
  store ptr %1, ptr %tailoring, align 8
  %2 = load ptr, ptr %t.addr, align 8
  %cmp = icmp ne ptr %2, null
  br i1 %cmp, label %if.then, label %if.end

if.then:                                          ; preds = %invoke.cont
  %3 = load ptr, ptr %t.addr, align 8
  invoke void @_ZNK6icu_7512SharedObject6addRefEv(ptr noundef nonnull align 8 dereferenceable(24) %3)
          to label %invoke.cont3 unwind label %lpad2

invoke.cont3:                                     ; preds = %if.then
  br label %if.end

lpad:                                             ; preds = %entry
  %4 = landingpad { ptr, i32 }
          cleanup
  %5 = extractvalue { ptr, i32 } %4, 0
  store ptr %5, ptr %exn.slot, align 8
  %6 = extractvalue { ptr, i32 } %4, 1
  store i32 %6, ptr %ehselector.slot, align 4
  br label %ehcleanup

lpad2:                                            ; preds = %if.then
  %7 = landingpad { ptr, i32 }
          cleanup
  %8 = extractvalue { ptr, i32 } %7, 0
  store ptr %8, ptr %exn.slot, align 8
  %9 = extractvalue { ptr, i32 } %7, 1
  store i32 %9, ptr %ehselector.slot, align 4
  call void @_ZN6icu_756LocaleD1Ev(ptr noundef nonnull align 8 dereferenceable(217) %validLocale) #9
  br label %ehcleanup

if.end:                                           ; preds = %invoke.cont3, %invoke.cont
  ret void

ehcleanup:                                        ; preds = %lpad2, %lpad
  call void @_ZN6icu_7512SharedObjectD2Ev(ptr noundef nonnull align 8 dereferenceable(24) %this1) #9
  br label %eh.resume

eh.resume:                                        ; preds = %ehcleanup
  %exn = load ptr, ptr %exn.slot, align 8
  %sel = load i32, ptr %ehselector.slot, align 4
  %lpad.val = insertvalue { ptr, i32 } poison, ptr %exn, 0
  %lpad.val4 = insertvalue { ptr, i32 } %lpad.val, i32 %sel, 1
  resume { ptr, i32 } %lpad.val4
}

; Function Attrs: mustprogress nounwind uwtable
define internal noundef signext i8 @_ZL9U_FAILURE10UErrorCode(i32 noundef %code) #0 {
entry:
  %code.addr = alloca i32, align 4
  store i32 %code, ptr %code.addr, align 4
  %0 = load i32, ptr %code.addr, align 4
  %cmp = icmp sgt i32 %0, 0
  %conv = zext i1 %cmp to i8
  ret i8 %conv
}

; Function Attrs: mustprogress uwtable
define noundef ptr @_ZN6icu_7515CollationLoader14makeCacheEntryERKNS_6LocaleEPKNS_19CollationCacheEntryER10UErrorCode(ptr noundef nonnull align 8 dereferenceable(217) %loc, ptr noundef %entryFromCache, ptr noundef nonnull align 4 dereferenceable(4) %errorCode) #1 align 2 personality ptr @__gxx_personality_v0 {
entry:
  %retval = alloca ptr, align 8
  %loc.addr = alloca ptr, align 8
  %entryFromCache.addr = alloca ptr, align 8
  %errorCode.addr = alloca ptr, align 8
  %entry2 = alloca ptr, align 8
  %saved-rvalue = alloca ptr, align 8
  %cleanup.cond = alloca i1, align 1
  %exn.slot = alloca ptr, align 8
  %ehselector.slot = alloca i32, align 4
  store ptr %loc, ptr %loc.addr, align 8
  store ptr %entryFromCache, ptr %entryFromCache.addr, align 8
  store ptr %errorCode, ptr %errorCode.addr, align 8
  %0 = load ptr, ptr %errorCode.addr, align 8
  %1 = load i32, ptr %0, align 4
  %call = call noundef signext i8 @_ZL9U_FAILURE10UErrorCode(i32 noundef %1)
  %tobool = icmp ne i8 %call, 0
  br i1 %tobool, label %if.then, label %lor.lhs.false

lor.lhs.false:                                    ; preds = %entry
  %2 = load ptr, ptr %loc.addr, align 8
  %3 = load ptr, ptr %entryFromCache.addr, align 8
  %validLocale = getelementptr inbounds %"struct.icu_75::CollationCacheEntry", ptr %3, i32 0, i32 1
  %call1 = call noundef zeroext i1 @_ZNK6icu_756LocaleeqERKS0_(ptr noundef nonnull align 8 dereferenceable(217) %2, ptr noundef nonnull align 8 dereferenceable(217) %validLocale)
  br i1 %call1, label %if.then, label %if.end

if.then:                                          ; preds = %lor.lhs.false, %entry
  %4 = load ptr, ptr %entryFromCache.addr, align 8
  store ptr %4, ptr %retval, align 8
  br label %return

if.end:                                           ; preds = %lor.lhs.false
  %call3 = call noundef ptr @_ZN6icu_757UMemorynwEm(i64 noundef 256) #9
  %new.isnull = icmp eq ptr %call3, null
  store i1 false, ptr %cleanup.cond, align 1
  br i1 %new.isnull, label %new.cont, label %new.notnull

new.notnull:                                      ; preds = %if.end
  store ptr %call3, ptr %saved-rvalue, align 8
  store i1 true, ptr %cleanup.cond, align 1
  %5 = load ptr, ptr %loc.addr, align 8
  %6 = load ptr, ptr %entryFromCache.addr, align 8
  %tailoring = getelementptr inbounds %"struct.icu_75::CollationCacheEntry", ptr %6, i32 0, i32 2
  %7 = load ptr, ptr %tailoring, align 8
  invoke void @_ZN6icu_7519CollationCacheEntryC2ERKNS_6LocaleEPKNS_18CollationTailoringE(ptr noundef nonnull align 8 dereferenceable(256) %call3, ptr noundef nonnull align 8 dereferenceable(217) %5, ptr noundef %7)
          to label %invoke.cont unwind label %lpad

invoke.cont:                                      ; preds = %new.notnull
  br label %new.cont

new.cont:                                         ; preds = %invoke.cont, %if.end
  %8 = phi ptr [ %call3, %invoke.cont ], [ null, %if.end ]
  store ptr %8, ptr %entry2, align 8
  %9 = load ptr, ptr %entry2, align 8
  %cmp = icmp eq ptr %9, null
  br i1 %cmp, label %if.then4, label %if.end5

if.then4:                                         ; preds = %new.cont
  %10 = load ptr, ptr %errorCode.addr, align 8
  store i32 7, ptr %10, align 4
  %11 = load ptr, ptr %entryFromCache.addr, align 8
  call void @_ZNK6icu_7512SharedObject9removeRefEv(ptr noundef nonnull align 8 dereferenceable(24) %11)
  store ptr null, ptr %retval, align 8
  br label %return

lpad:                                             ; preds = %new.notnull
  %12 = landingpad { ptr, i32 }
          cleanup
  %13 = extractvalue { ptr, i32 } %12, 0
  store ptr %13, ptr %exn.slot, align 8
  %14 = extractvalue { ptr, i32 } %12, 1
  store i32 %14, ptr %ehselector.slot, align 4
  %cleanup.is_active = load i1, ptr %cleanup.cond, align 1
  br i1 %cleanup.is_active, label %cleanup.action, label %cleanup.done

cleanup.action:                                   ; preds = %lpad
  %15 = load ptr, ptr %saved-rvalue, align 8
  call void @_ZN6icu_757UMemorydlEPv(ptr noundef %15) #9
  br label %cleanup.done

cleanup.done:                                     ; preds = %cleanup.action, %lpad
  br label %eh.resume

if.end5:                                          ; preds = %new.cont
  %16 = load ptr, ptr %entry2, align 8
  call void @_ZNK6icu_7512SharedObject6addRefEv(ptr noundef nonnull align 8 dereferenceable(24) %16)
  %17 = load ptr, ptr %entryFromCache.addr, align 8
  call void @_ZNK6icu_7512SharedObject9removeRefEv(ptr noundef nonnull align 8 dereferenceable(24) %17)
  %18 = load ptr, ptr %entry2, align 8
  store ptr %18, ptr %retval, align 8
  br label %return

return:                                           ; preds = %if.end5, %if.then4, %if.then
  %19 = load ptr, ptr %retval, align 8
  ret ptr %19

eh.resume:                                        ; preds = %cleanup.done
  %exn = load ptr, ptr %exn.slot, align 8
  %sel = load i32, ptr %ehselector.slot, align 4
  %lpad.val = insertvalue { ptr, i32 } poison, ptr %exn, 0
  %lpad.val6 = insertvalue { ptr, i32 } %lpad.val, i32 %sel, 1
  resume { ptr, i32 } %lpad.val6
}