; Function Attrs: mustprogress uwtable
define noundef ptr @_ZN6icu_7515CollationLoader14makeCacheEntryERKNS_6LocaleEPKNS_19CollationCacheEntryER10UErrorCode(ptr noundef nonnull align 8 dereferenceable(217) %loc, ptr noundef %entryFromCache, ptr nocapture noundef nonnull align 4 dereferenceable(4) %errorCode) local_unnamed_addr #1 align 2 personality ptr @__gxx_personality_v0 {
entry:
  %0 = load i32, ptr %errorCode, align 4
  %cmp.i = icmp slt i32 %0, 1
  br i1 %cmp.i, label %lor.lhs.false, label %return

lor.lhs.false:                                    ; preds = %entry
  %validLocale = getelementptr inbounds i8, ptr %entryFromCache, i64 24
  %call1 = tail call noundef zeroext i1 @_ZNK6icu_756LocaleeqERKS0_(ptr noundef nonnull align 8 dereferenceable(217) %loc, ptr noundef nonnull align 8 dereferenceable(217) %validLocale)
  br i1 %call1, label %return, label %if.end

if.end:                                           ; preds = %lor.lhs.false
  %call3 = tail call noundef ptr @_ZN6icu_757UMemorynwEm(i64 noundef 256) #13
  %new.isnull = icmp eq ptr %call3, null
  br i1 %new.isnull, label %if.then4, label %new.notnull

new.notnull:                                      ; preds = %if.end
  %tailoring = getelementptr inbounds i8, ptr %entryFromCache, i64 248
  %1 = load ptr, ptr %tailoring, align 8
  %softRefCount.i.i = getelementptr inbounds i8, ptr %call3, i64 8
  tail call void @llvm.memset.p0.i64(ptr noundef nonnull align 8 dereferenceable(16) %softRefCount.i.i, i8 0, i64 16, i1 false)
  store ptr getelementptr inbounds ({ [5 x ptr] }, ptr @_ZTVN6icu_7519CollationCacheEntryE, i64 0, i32 0, i64 2), ptr %call3, align 8
  %validLocale.i = getelementptr inbounds i8, ptr %call3, i64 24
  invoke void @_ZN6icu_756LocaleC1ERKS0_(ptr noundef nonnull align 8 dereferenceable(217) %validLocale.i, ptr noundef nonnull align 8 dereferenceable(217) %loc)
          to label %invoke.cont.i unwind label %lpad.i

invoke.cont.i:                                    ; preds = %new.notnull
  %tailoring.i = getelementptr inbounds i8, ptr %call3, i64 248
  store ptr %1, ptr %tailoring.i, align 8
  %cmp.not.i = icmp eq ptr %1, null
  br i1 %cmp.not.i, label %if.end5, label %if.then.i

if.then.i:                                        ; preds = %invoke.cont.i
  invoke void @_ZNK6icu_7512SharedObject6addRefEv(ptr noundef nonnull align 8 dereferenceable(24) %1)
          to label %if.end5 unwind label %lpad2.i

lpad.i:                                           ; preds = %new.notnull
  %2 = landingpad { ptr, i32 }
          cleanup
  br label %ehcleanup.i

lpad2.i:                                          ; preds = %if.then.i
  %3 = landingpad { ptr, i32 }
          cleanup
  tail call void @_ZN6icu_756LocaleD1Ev(ptr noundef nonnull align 8 dereferenceable(217) %validLocale.i) #13
  br label %ehcleanup.i

ehcleanup.i:                                      ; preds = %lpad2.i, %lpad.i
  %.pn.i = phi { ptr, i32 } [ %3, %lpad2.i ], [ %2, %lpad.i ]
  tail call void @_ZN6icu_7512SharedObjectD2Ev(ptr noundef nonnull align 8 dereferenceable(24) %call3) #13
  tail call void @_ZN6icu_757UMemorydlEPv(ptr noundef nonnull %call3) #13
  resume { ptr, i32 } %.pn.i

if.then4:                                         ; preds = %if.end
  store i32 7, ptr %errorCode, align 4
  br label %return.sink.split

if.end5:                                          ; preds = %invoke.cont.i, %if.then.i
  tail call void @_ZNK6icu_7512SharedObject6addRefEv(ptr noundef nonnull align 8 dereferenceable(24) %call3)
  br label %return.sink.split

return.sink.split:                                ; preds = %if.then4, %if.end5
  %retval.0.ph = phi ptr [ %call3, %if.end5 ], [ null, %if.then4 ]
  tail call void @_ZNK6icu_7512SharedObject9removeRefEv(ptr noundef nonnull align 8 dereferenceable(24) %entryFromCache)
  br label %return

return:                                           ; preds = %return.sink.split, %entry, %lor.lhs.false
  %retval.0 = phi ptr [ %entryFromCache, %lor.lhs.false ], [ %entryFromCache, %entry ], [ %retval.0.ph, %return.sink.split ]
  ret ptr %retval.0
}